target datalayout = "e-m:e-p270:32:32-p271:32:32-p272:64:64-i64:64-i128:128-f80:128-n8:16:32:64-S128"
target triple = "x86_64-pc-linux-gnu"

%struct.Dec_Graph_t_ = type { i32, i32, i32, i32, ptr, %struct.Dec_Edge_t_ }
%struct.Dec_Edge_t_ = type { i32 }
%struct.Dec_Node_t_ = type { %struct.Dec_Edge_t_, %struct.Dec_Edge_t_, %union.anon, i32 }
%union.anon = type { ptr }

@.str.3 = private unnamed_addr constant [2 x i8] c"(\00", align 1
@.str.4 = private unnamed_addr constant [2 x i8] c")\00", align 1
@.str.6 = private unnamed_addr constant [4 x i8] c" + \00", align 1
@.str.7 = private unnamed_addr constant [4 x i8] c" # \00", align 1
@Dec_GraphPrintGetLeafName.Buffer = internal global [100 x i8] zeroinitializer, align 16
@.str.8 = private unnamed_addr constant [5 x i8] c"%s%s\00", align 1
@.str.9 = private unnamed_addr constant [2 x i8] c"!\00", align 1
@.str.10 = private unnamed_addr constant [1 x i8] zeroinitializer, align 1
@.str.11 = private unnamed_addr constant [3 x i8] c"%s\00", align 1

; Function Attrs: nounwind uwtable
define internal i32 @Dec_GraphPrintGetLeafName(ptr noundef %0, i32 noundef %1, i32 noundef %2, ptr noundef %3) #0 {
  %5 = alloca ptr, align 8
  %6 = alloca i32, align 4
  %7 = alloca i32, align 4
  %8 = alloca ptr, align 8
  store ptr %0, ptr %5, align 8
  store i32 %1, ptr %6, align 4
  store i32 %2, ptr %7, align 4
  store ptr %3, ptr %8, align 8
  %9 = load i32, ptr %7, align 4
  %10 = icmp ne i32 %9, 0
  %11 = select i1 %10, ptr @.str.9, ptr @.str.10
  %12 = load ptr, ptr %8, align 8
  %13 = load i32, ptr %6, align 4
  %14 = sext i32 %13 to i64
  %15 = getelementptr inbounds ptr, ptr %12, i64 %14
  %16 = load ptr, ptr %15, align 8
  %17 = call i32 (ptr, ptr, ...) @sprintf(ptr noundef @Dec_GraphPrintGetLeafName.Buffer, ptr noundef @.str.8, ptr noundef %11, ptr noundef %16) #5
  %18 = load ptr, ptr %5, align 8
  %19 = call i32 (ptr, ptr, ...) @fprintf(ptr noundef %18, ptr noundef @.str.11, ptr noundef @Dec_GraphPrintGetLeafName.Buffer) #5
  %20 = call i64 @strlen(ptr noundef @Dec_GraphPrintGetLeafName.Buffer) #4
  %21 = trunc i64 %20 to i32
  ret i32 %21
}

; Function Attrs: nounwind uwtable
define internal i32 @Dec_GraphNodeInt(ptr noundef %0, ptr noundef %1) #0 {
  %3 = alloca ptr, align 8
  %4 = alloca ptr, align 8
  store ptr %0, ptr %3, align 8
  store ptr %1, ptr %4, align 8
  %5 = load ptr, ptr %4, align 8
  %6 = load ptr, ptr %3, align 8
  %7 = getelementptr inbounds %struct.Dec_Graph_t_, ptr %6, i32 0, i32 4
  %8 = load ptr, ptr %7, align 8
  %9 = ptrtoint ptr %5 to i64
  %10 = ptrtoint ptr %8 to i64
  %11 = sub i64 %9, %10
  %12 = sdiv exact i64 %11, 24
  %13 = trunc i64 %12 to i32
  ret i32 %13
}

; Function Attrs: nounwind uwtable
define internal i32 @Dec_GraphNodeIsVar(ptr noundef %0, ptr noundef %1) #0 {
  %3 = alloca ptr, align 8
  %4 = alloca ptr, align 8
  store ptr %0, ptr %3, align 8
  store ptr %1, ptr %4, align 8
  %5 = load ptr, ptr %3, align 8
  %6 = load ptr, ptr %4, align 8
  %7 = call i32 @Dec_GraphNodeInt(ptr noundef %5, ptr noundef %6)
  %8 = load ptr, ptr %3, align 8
  %9 = getelementptr inbounds %struct.Dec_Graph_t_, ptr %8, i32 0, i32 1
  %10 = load i32, ptr %9, align 4
  %11 = icmp slt i32 %7, %10
  %12 = zext i1 %11 to i32
  ret i32 %12
}

; Function Attrs: nounwind uwtable
define internal ptr @Dec_GraphNode(ptr noundef %0, i32 noundef %1) #0 {
  %3 = alloca ptr, align 8
  %4 = alloca i32, align 4
  store ptr %0, ptr %3, align 8
  store i32 %1, ptr %4, align 4
  %5 = load ptr, ptr %3, align 8
  %6 = getelementptr inbounds %struct.Dec_Graph_t_, ptr %5, i32 0, i32 4
  %7 = load ptr, ptr %6, align 8
  %8 = load i32, ptr %4, align 4
  %9 = sext i32 %8 to i64
  %10 = getelementptr inbounds %struct.Dec_Node_t_, ptr %7, i64 %9
  ret ptr %10
}

; Function Attrs: nounwind uwtable
define internal void @Dec_GraphPrint_rec(ptr noundef %0, ptr noundef %1, ptr noundef %2, i32 noundef %3, ptr noundef %4, ptr noundef %5, i32 noundef %6) #0 {
  %8 = alloca ptr, align 8
  %9 = alloca ptr, align 8
  %10 = alloca ptr, align 8
  %11 = alloca i32, align 4
  %12 = alloca ptr, align 8
  %13 = alloca ptr, align 8
  %14 = alloca i32, align 4
  %15 = alloca ptr, align 8
  %16 = alloca ptr, align 8
  %17 = alloca ptr, align 8
  %18 = alloca ptr, align 8
  %19 = alloca ptr, align 8
  %20 = alloca ptr, align 8
  store ptr %0, ptr %8, align 8
  store ptr %1, ptr %9, align 8
  store ptr %2, ptr %10, align 8
  store i32 %3, ptr %11, align 4
  store ptr %4, ptr %12, align 8
  store ptr %5, ptr %13, align 8
  store i32 %6, ptr %14, align 4
  %21 = load ptr, ptr %9, align 8
  %22 = load ptr, ptr %10, align 8
  %23 = getelementptr inbounds %struct.Dec_Node_t_, ptr %22, i32 0, i32 0
  %24 = load i32, ptr %23, align 8
  %25 = lshr i32 %24, 1
  %26 = and i32 %25, 1073741823
  %27 = call ptr @Dec_GraphNode(ptr noundef %21, i32 noundef %26)
  store ptr %27, ptr %15, align 8
  %28 = load ptr, ptr %9, align 8
  %29 = load ptr, ptr %10, align 8
  %30 = getelementptr inbounds %struct.Dec_Node_t_, ptr %29, i32 0, i32 1
  %31 = load i32, ptr %30, align 4
  %32 = lshr i32 %31, 1
  %33 = and i32 %32, 1073741823
  %34 = call ptr @Dec_GraphNode(ptr noundef %28, i32 noundef %33)
  store ptr %34, ptr %16, align 8
  %35 = load ptr, ptr %9, align 8
  %36 = load ptr, ptr %10, align 8
  %37 = call i32 @Dec_GraphNodeIsVar(ptr noundef %35, ptr noundef %36)
  %38 = icmp ne i32 %37, 0
  br i1 %38, label %39, label %50

39:                                               ; preds = %7
  %40 = load ptr, ptr %8, align 8
  %41 = load ptr, ptr %9, align 8
  %42 = load ptr, ptr %10, align 8
  %43 = call i32 @Dec_GraphNodeInt(ptr noundef %41, ptr noundef %42)
  %44 = load i32, ptr %11, align 4
  %45 = load ptr, ptr %12, align 8
  %46 = call i32 @Dec_GraphPrintGetLeafName(ptr noundef %40, i32 noundef %43, i32 noundef %44, ptr noundef %45)
  %47 = load ptr, ptr %13, align 8
  %48 = load i32, ptr %47, align 4
  %49 = add nsw i32 %48, %46
  store i32 %49, ptr %47, align 4
  br label %219

50:                                               ; preds = %7
  %51 = load ptr, ptr %9, align 8
  %52 = load ptr, ptr %15, align 8
  %53 = call i32 @Dec_GraphNodeIsVar(ptr noundef %51, ptr noundef %52)
  %54 = icmp ne i32 %53, 0
  br i1 %54, label %143, label %55

55:                                               ; preds = %50
  %56 = load ptr, ptr %9, align 8
  %57 = load ptr, ptr %16, align 8
  %58 = call i32 @Dec_GraphNodeIsVar(ptr noundef %56, ptr noundef %57)
  %59 = icmp ne i32 %58, 0
  br i1 %59, label %143, label %60

60:                                               ; preds = %55
  %61 = load ptr, ptr %9, align 8
  %62 = load ptr, ptr %15, align 8
  %63 = getelementptr inbounds %struct.Dec_Node_t_, ptr %62, i32 0, i32 0
  %64 = load i32, ptr %63, align 8
  %65 = lshr i32 %64, 1
  %66 = and i32 %65, 1073741823
  %67 = call ptr @Dec_GraphNode(ptr noundef %61, i32 noundef %66)
  store ptr %67, ptr %17, align 8
  %68 = load ptr, ptr %9, align 8
  %69 = load ptr, ptr %15, align 8
  %70 = getelementptr inbounds %struct.Dec_Node_t_, ptr %69, i32 0, i32 1
  %71 = load i32, ptr %70, align 4
  %72 = lshr i32 %71, 1
  %73 = and i32 %72, 1073741823
  %74 = call ptr @Dec_GraphNode(ptr noundef %68, i32 noundef %73)
  store ptr %74, ptr %18, align 8
  %75 = load ptr, ptr %9, align 8
  %76 = load ptr, ptr %16, align 8
  %77 = getelementptr inbounds %struct.Dec_Node_t_, ptr %76, i32 0, i32 0
  %78 = load i32, ptr %77, align 8
  %79 = lshr i32 %78, 1
  %80 = and i32 %79, 1073741823
  %81 = call ptr @Dec_GraphNode(ptr noundef %75, i32 noundef %80)
  store ptr %81, ptr %19, align 8
  %82 = load ptr, ptr %9, align 8
  %83 = load ptr, ptr %16, align 8
  %84 = getelementptr inbounds %struct.Dec_Node_t_, ptr %83, i32 0, i32 1
  %85 = load i32, ptr %84, align 4
  %86 = lshr i32 %85, 1
  %87 = and i32 %86, 1073741823
  %88 = call ptr @Dec_GraphNode(ptr noundef %82, i32 noundef %87)
  store ptr %88, ptr %20, align 8
  %89 = load ptr, ptr %17, align 8
  %90 = load ptr, ptr %19, align 8
  %91 = icmp eq ptr %89, %90
  br i1 %91, label %96, label %92

92:                                               ; preds = %60
  %93 = load ptr, ptr %17, align 8
  %94 = load ptr, ptr %20, align 8
  %95 = icmp eq ptr %93, %94
  br i1 %95, label %96, label %142

96:                                               ; preds = %92, %60
  %97 = load ptr, ptr %18, align 8
  %98 = load ptr, ptr %19, align 8
  %99 = icmp eq ptr %97, %98
  br i1 %99, label %104, label %100

100:                                              ; preds = %96
  %101 = load ptr, ptr %18, align 8
  %102 = load ptr, ptr %20, align 8
  %103 = icmp eq ptr %101, %102
  br i1 %103, label %104, label %142

104:                                              ; preds = %100, %96
  %105 = load ptr, ptr %8, align 8
  %106 = call i32 (ptr, ptr, ...) @fprintf(ptr noundef %105, ptr noundef @.str.3) #5
  %107 = load ptr, ptr %13, align 8
  %108 = load i32, ptr %107, align 4
  %109 = add nsw i32 %108, 1
  store i32 %109, ptr %107, align 4
  %110 = load ptr, ptr %8, align 8
  %111 = load ptr, ptr %9, align 8
  %112 = load ptr, ptr %17, align 8
  %113 = load ptr, ptr %17, align 8
  %114 = getelementptr inbounds %struct.Dec_Node_t_, ptr %113, i32 0, i32 3
  %115 = load i32, ptr %114, align 8
  %116 = lshr i32 %115, 15
  %117 = and i32 %116, 1
  %118 = load ptr, ptr %12, align 8
  %119 = load ptr, ptr %13, align 8
  %120 = load i32, ptr %14, align 4
  call void @Dec_GraphPrint_rec(ptr noundef %110, ptr noundef %111, ptr noundef %112, i32 noundef %117, ptr noundef %118, ptr noundef %119, i32 noundef %120)
  %121 = load ptr, ptr %8, align 8
  %122 = call i32 (ptr, ptr, ...) @fprintf(ptr noundef %121, ptr noundef @.str.7) #5
  %123 = load ptr, ptr %13, align 8
  %124 = load i32, ptr %123, align 4
  %125 = add nsw i32 %124, 3
  store i32 %125, ptr %123, align 4
  %126 = load ptr, ptr %8, align 8
  %127 = load ptr, ptr %9, align 8
  %128 = load ptr, ptr %18, align 8
  %129 = load ptr, ptr %18, align 8
  %130 = getelementptr inbounds %struct.Dec_Node_t_, ptr %129, i32 0, i32 3
  %131 = load i32, ptr %130, align 8
  %132 = lshr i32 %131, 16
  %133 = and i32 %132, 1
  %134 = load ptr, ptr %12, align 8
  %135 = load ptr, ptr %13, align 8
  %136 = load i32, ptr %14, align 4
  call void @Dec_GraphPrint_rec(ptr noundef %126, ptr noundef %127, ptr noundef %128, i32 noundef %133, ptr noundef %134, ptr noundef %135, i32 noundef %136)
  %137 = load ptr, ptr %8, align 8
  %138 = call i32 (ptr, ptr, ...) @fprintf(ptr noundef %137, ptr noundef @.str.4) #5
  %139 = load ptr, ptr %13, align 8
  %140 = load i32, ptr %139, align 4
  %141 = add nsw i32 %140, 1
  store i32 %141, ptr %139, align 4
  br label %219

142:                                              ; preds = %100, %92
  br label %143

143:                                              ; preds = %142, %55, %50
  %144 = load i32, ptr %11, align 4
  %145 = icmp ne i32 %144, 0
  br i1 %145, label %146, label %188

146:                                              ; preds = %143
  %147 = load ptr, ptr %8, align 8
  %148 = call i32 (ptr, ptr, ...) @fprintf(ptr noundef %147, ptr noundef @.str.3) #5
  %149 = load ptr, ptr %13, align 8
  %150 = load i32, ptr %149, align 4
  %151 = add nsw i32 %150, 1
  store i32 %151, ptr %149, align 4
  %152 = load ptr, ptr %8, align 8
  %153 = load ptr, ptr %9, align 8
  %154 = load ptr, ptr %15, align 8
  %155 = load ptr, ptr %10, align 8
  %156 = getelementptr inbounds %struct.Dec_Node_t_, ptr %155, i32 0, i32 0
  %157 = load i32, ptr %156, align 8
  %158 = and i32 %157, 1
  %159 = icmp ne i32 %158, 0
  %160 = xor i1 %159, true
  %161 = zext i1 %160 to i32
  %162 = load ptr, ptr %12, align 8
  %163 = load ptr, ptr %13, align 8
  %164 = load i32, ptr %14, align 4
  call void @Dec_GraphPrint_rec(ptr noundef %152, ptr noundef %153, ptr noundef %154, i32 noundef %161, ptr noundef %162, ptr noundef %163, i32 noundef %164)
  %165 = load ptr, ptr %8, align 8
  %166 = call i32 (ptr, ptr, ...) @fprintf(ptr noundef %165, ptr noundef @.str.6) #5
  %167 = load ptr, ptr %13, align 8
  %168 = load i32, ptr %167, align 4
  %169 = add nsw i32 %168, 3
  store i32 %169, ptr %167, align 4
  %170 = load ptr, ptr %8, align 8
  %171 = load ptr, ptr %9, align 8
  %172 = load ptr, ptr %16, align 8
  %173 = load ptr, ptr %10, align 8
  %174 = getelementptr inbounds %struct.Dec_Node_t_, ptr %173, i32 0, i32 1
  %175 = load i32, ptr %174, align 4
  %176 = and i32 %175, 1
  %177 = icmp ne i32 %176, 0
  %178 = xor i1 %177, true
  %179 = zext i1 %178 to i32
  %180 = load ptr, ptr %12, align 8
  %181 = load ptr, ptr %13, align 8
  %182 = load i32, ptr %14, align 4
  call void @Dec_GraphPrint_rec(ptr noundef %170, ptr noundef %171, ptr noundef %172, i32 noundef %179, ptr noundef %180, ptr noundef %181, i32 noundef %182)
  %183 = load ptr, ptr %8, align 8
  %184 = call i32 (ptr, ptr, ...) @fprintf(ptr noundef %183, ptr noundef @.str.4) #5
  %185 = load ptr, ptr %13, align 8
  %186 = load i32, ptr %185, align 4
  %187 = add nsw i32 %186, 1
  store i32 %187, ptr %185, align 4
  br label %219

188:                                              ; preds = %143
  %189 = load ptr, ptr %8, align 8
  %190 = call i32 (ptr, ptr, ...) @fprintf(ptr noundef %189, ptr noundef @.str.3) #5
  %191 = load ptr, ptr %13, align 8
  %192 = load i32, ptr %191, align 4
  %193 = add nsw i32 %192, 1
  store i32 %193, ptr %191, align 4
  %194 = load ptr, ptr %8, align 8
  %195 = load ptr, ptr %9, align 8
  %196 = load ptr, ptr %15, align 8
  %197 = load ptr, ptr %10, align 8
  %198 = getelementptr inbounds %struct.Dec_Node_t_, ptr %197, i32 0, i32 0
  %199 = load i32, ptr %198, align 8
  %200 = and i32 %199, 1
  %201 = load ptr, ptr %12, align 8
  %202 = load ptr, ptr %13, align 8
  %203 = load i32, ptr %14, align 4
  call void @Dec_GraphPrint_rec(ptr noundef %194, ptr noundef %195, ptr noundef %196, i32 noundef %200, ptr noundef %201, ptr noundef %202, i32 noundef %203)
  %204 = load ptr, ptr %8, align 8
  %205 = load ptr, ptr %9, align 8
  %206 = load ptr, ptr %16, align 8
  %207 = load ptr, ptr %10, align 8
  %208 = getelementptr inbounds %struct.Dec_Node_t_, ptr %207, i32 0, i32 1
  %209 = load i32, ptr %208, align 4
  %210 = and i32 %209, 1
  %211 = load ptr, ptr %12, align 8
  %212 = load ptr, ptr %13, align 8
  %213 = load i32, ptr %14, align 4
  call void @Dec_GraphPrint_rec(ptr noundef %204, ptr noundef %205, ptr noundef %206, i32 noundef %210, ptr noundef %211, ptr noundef %212, i32 noundef %213)
  %214 = load ptr, ptr %8, align 8
  %215 = call i32 (ptr, ptr, ...) @fprintf(ptr noundef %214, ptr noundef @.str.4) #5
  %216 = load ptr, ptr %13, align 8
  %217 = load i32, ptr %216, align 4
  %218 = add nsw i32 %217, 1
  store i32 %218, ptr %216, align 4
  br label %219

219:                                              ; preds = %188, %146, %104, %39
  ret void
}