; Function Attrs: nofree nounwind uwtable
define internal fastcc void @Dec_GraphPrint_rec(ptr noundef %0, ptr noundef %1, ptr noundef %2, i32 noundef range(i32 0, 2) %3, ptr noundef %4, ptr noundef %5) unnamed_addr #4 {
  %7 = load i32, ptr %2, align 8
  %8 = lshr i32 %7, 1
  %9 = and i32 %8, 1073741823
  %10 = getelementptr i8, ptr %1, i64 16
  %.val = load ptr, ptr %10, align 8
  %11 = zext nneg i32 %9 to i64
  %12 = getelementptr inbounds nuw %struct.Dec_Node_t_, ptr %.val, i64 %11
  %13 = getelementptr inbounds nuw i8, ptr %2, i64 4
  %14 = load i32, ptr %13, align 4
  %15 = lshr i32 %14, 1
  %16 = and i32 %15, 1073741823
  %17 = zext nneg i32 %16 to i64
  %18 = getelementptr inbounds nuw %struct.Dec_Node_t_, ptr %.val, i64 %17
  %19 = getelementptr i8, ptr %1, i64 4
  %.val108 = load i32, ptr %19, align 4
  %20 = ptrtoint ptr %2 to i64
  %21 = ptrtoint ptr %.val to i64
  %22 = sub i64 %20, %21
  %23 = sdiv exact i64 %22, 24
  %24 = trunc i64 %23 to i32
  %.not = icmp sgt i32 %.val108, %24
  br i1 %.not, label %25, label %33

25:                                               ; preds = %6
  %.not.i = icmp eq i32 %3, 0
  %26 = select i1 %.not.i, ptr @.str.10, ptr @.str.9
  %sext = shl i64 %23, 32
  %27 = ashr exact i64 %sext, 29
  %28 = getelementptr inbounds i8, ptr %4, i64 %27
  %29 = load ptr, ptr %28, align 8
  %30 = tail call i32 (ptr, ptr, ...) @sprintf(ptr noundef nonnull dereferenceable(1) @Dec_GraphPrintGetLeafName.Buffer, ptr noundef nonnull dereferenceable(1) @.str.8, ptr noundef nonnull %26, ptr noundef %29) #7
  %fputs.i = tail call i32 @fputs(ptr nonnull @Dec_GraphPrintGetLeafName.Buffer, ptr %0)
  %31 = tail call i64 @strlen(ptr noundef nonnull dereferenceable(1) @Dec_GraphPrintGetLeafName.Buffer) #8
  %32 = trunc i64 %31 to i32
  br label %common.ret

33:                                               ; preds = %6
  %.not114 = icmp sgt i32 %.val108, %9
  %.not115 = icmp sgt i32 %.val108, %16
  %or.cond116 = select i1 %.not114, i1 true, i1 %.not115
  br i1 %or.cond116, label %74, label %34

34:                                               ; preds = %33
  %35 = load i32, ptr %12, align 8
  %36 = lshr i32 %35, 1
  %37 = and i32 %36, 1073741823
  %38 = zext nneg i32 %37 to i64
  %39 = getelementptr inbounds nuw %struct.Dec_Node_t_, ptr %.val, i64 %38
  %40 = getelementptr inbounds nuw i8, ptr %12, i64 4
  %41 = load i32, ptr %40, align 4
  %42 = lshr i32 %41, 1
  %43 = and i32 %42, 1073741823
  %44 = zext nneg i32 %43 to i64
  %45 = getelementptr inbounds nuw %struct.Dec_Node_t_, ptr %.val, i64 %44
  %46 = load i32, ptr %18, align 8
  %47 = lshr i32 %46, 1
  %48 = and i32 %47, 1073741823
  %49 = getelementptr inbounds nuw i8, ptr %18, i64 4
  %50 = load i32, ptr %49, align 4
  %51 = lshr i32 %50, 1
  %52 = and i32 %51, 1073741823
  %53 = icmp eq i32 %37, %48
  %54 = icmp eq i32 %37, %52
  %or.cond = select i1 %53, i1 true, i1 %54
  br i1 %or.cond, label %55, label %74

55:                                               ; preds = %34
  %56 = icmp eq i32 %43, %48
  %57 = icmp eq i32 %43, %52
  %or.cond101 = select i1 %56, i1 true, i1 %57
  br i1 %or.cond101, label %60, label %74

common.ret:                                       ; preds = %25, %87, %79, %60
  %.sink118 = phi i32 [ %32, %25 ], [ 1, %87 ], [ 1, %79 ], [ 1, %60 ]
  %58 = load i32, ptr %5, align 4
  %59 = add nsw i32 %58, %.sink118
  store i32 %59, ptr %5, align 4
  ret void

60:                                               ; preds = %55
  %fputc = tail call i32 @fputc(i32 40, ptr %0)
  %61 = load i32, ptr %5, align 4
  %62 = add nsw i32 %61, 1
  store i32 %62, ptr %5, align 4
  %63 = getelementptr inbounds nuw i8, ptr %39, i64 16
  %64 = load i32, ptr %63, align 8
  %65 = lshr i32 %64, 15
  %66 = and i32 %65, 1
  tail call fastcc void @Dec_GraphPrint_rec(ptr noundef %0, ptr noundef nonnull %1, ptr noundef nonnull %39, i32 noundef %66, ptr noundef %4, ptr noundef nonnull %5)
  %67 = tail call i64 @fwrite(ptr nonnull @.str.7, i64 3, i64 1, ptr %0)
  %68 = load i32, ptr %5, align 4
  %69 = add nsw i32 %68, 3
  store i32 %69, ptr %5, align 4
  %70 = getelementptr inbounds nuw i8, ptr %45, i64 16
  %71 = load i32, ptr %70, align 8
  %72 = lshr i32 %71, 16
  %73 = and i32 %72, 1
  tail call fastcc void @Dec_GraphPrint_rec(ptr noundef %0, ptr noundef nonnull %1, ptr noundef nonnull %45, i32 noundef %73, ptr noundef %4, ptr noundef nonnull %5)
  %fputc93 = tail call i32 @fputc(i32 41, ptr %0)
  br label %common.ret

74:                                               ; preds = %55, %34, %33
  %.not94 = icmp eq i32 %3, 0
  %fputc95 = tail call i32 @fputc(i32 40, ptr %0)
  %75 = load i32, ptr %5, align 4
  %76 = add nsw i32 %75, 1
  store i32 %76, ptr %5, align 4
  %77 = load i32, ptr %2, align 8
  %78 = and i32 %77, 1
  br i1 %.not94, label %87, label %79

79:                                               ; preds = %74
  %80 = xor i32 %78, 1
  tail call fastcc void @Dec_GraphPrint_rec(ptr noundef %0, ptr noundef nonnull %1, ptr noundef %12, i32 noundef %80, ptr noundef %4, ptr noundef nonnull %5)
  %81 = tail call i64 @fwrite(ptr nonnull @.str.6, i64 3, i64 1, ptr %0)
  %82 = load i32, ptr %5, align 4
  %83 = add nsw i32 %82, 3
  store i32 %83, ptr %5, align 4
  %84 = load i32, ptr %13, align 4
  %85 = and i32 %84, 1
  %86 = xor i32 %85, 1
  tail call fastcc void @Dec_GraphPrint_rec(ptr noundef %0, ptr noundef nonnull %1, ptr noundef %18, i32 noundef %86, ptr noundef %4, ptr noundef nonnull %5)
  %fputc100 = tail call i32 @fputc(i32 41, ptr %0)
  br label %common.ret

87:                                               ; preds = %74
  tail call fastcc void @Dec_GraphPrint_rec(ptr noundef %0, ptr noundef nonnull %1, ptr noundef %12, i32 noundef %78, ptr noundef %4, ptr noundef nonnull %5)
  %88 = load i32, ptr %13, align 4
  %89 = and i32 %88, 1
  tail call fastcc void @Dec_GraphPrint_rec(ptr noundef %0, ptr noundef nonnull %1, ptr noundef %18, i32 noundef %89, ptr noundef %4, ptr noundef nonnull %5)
  %fputc96 = tail call i32 @fputc(i32 41, ptr %0)
  br label %common.ret
}